; Function Attrs: nofree norecurse nosync nounwind memory(argmem: readwrite) uwtable
define internal void @put_no_rnd_pixels16_8_c(ptr noundef writeonly captures(none) %0, ptr noundef readonly captures(none) %1, i64 noundef %2, i32 noundef %3) #1 {
  %5 = icmp sgt i32 %3, 0
  br i1 %5, label %.lr.ph.i, label %put_pixels8_8_c.exit12

.lr.ph.i:                                         ; preds = %4, %.lr.ph.i
  %.014.i = phi i32 [ %12, %.lr.ph.i ], [ 0, %4 ]
  %.01013.i = phi ptr [ %11, %.lr.ph.i ], [ %0, %4 ]
  %.01112.i = phi ptr [ %10, %.lr.ph.i ], [ %1, %4 ]
  %6 = load i32, ptr %.01112.i, align 1, !tbaa !8
  store i32 %6, ptr %.01013.i, align 4, !tbaa !9
  %7 = getelementptr inbounds nuw i8, ptr %.01112.i, i64 4
  %8 = load i32, ptr %7, align 1, !tbaa !8
  %9 = getelementptr inbounds nuw i8, ptr %.01013.i, i64 4
  store i32 %8, ptr %9, align 4, !tbaa !9
  %10 = getelementptr inbounds i8, ptr %.01112.i, i64 %2
  %11 = getelementptr inbounds i8, ptr %.01013.i, i64 %2
  %12 = add nuw nsw i32 %.014.i, 1
  %exitcond.not.i = icmp eq i32 %12, %3
  br i1 %exitcond.not.i, label %put_pixels8_8_c.exit, label %.lr.ph.i, !llvm.loop !11

put_pixels8_8_c.exit:                             ; preds = %.lr.ph.i
  %13 = getelementptr inbounds nuw i8, ptr %0, i64 8
  %14 = getelementptr inbounds nuw i8, ptr %1, i64 8
  br label %.lr.ph.i7

.lr.ph.i7:                                        ; preds = %put_pixels8_8_c.exit, %.lr.ph.i7
  %.014.i8 = phi i32 [ %21, %.lr.ph.i7 ], [ 0, %put_pixels8_8_c.exit ]
  %.01013.i9 = phi ptr [ %20, %.lr.ph.i7 ], [ %13, %put_pixels8_8_c.exit ]
  %.01112.i10 = phi ptr [ %19, %.lr.ph.i7 ], [ %14, %put_pixels8_8_c.exit ]
  %15 = load i32, ptr %.01112.i10, align 1, !tbaa !8
  store i32 %15, ptr %.01013.i9, align 4, !tbaa !9
  %16 = getelementptr inbounds nuw i8, ptr %.01112.i10, i64 4
  %17 = load i32, ptr %16, align 1, !tbaa !8
  %18 = getelementptr inbounds nuw i8, ptr %.01013.i9, i64 4
  store i32 %17, ptr %18, align 4, !tbaa !9
  %19 = getelementptr inbounds i8, ptr %.01112.i10, i64 %2
  %20 = getelementptr inbounds i8, ptr %.01013.i9, i64 %2
  %21 = add nuw nsw i32 %.014.i8, 1
  %exitcond.not.i11 = icmp eq i32 %21, %3
  br i1 %exitcond.not.i11, label %put_pixels8_8_c.exit12, label %.lr.ph.i7, !llvm.loop !11

put_pixels8_8_c.exit12:                           ; preds = %.lr.ph.i7, %4
  ret void
}